(lp0
VAPET
p1
aVASUP
p2
aVAOTH
p3
aVCCNW
p4
aVCOMM
p5
aVCGRP
p6
aVCLNF
p7
aVCRID
p8
aVCVOL
p9
aVCOTH
p10
aVDDEL
p11
aVDISP
p12
aVDTAX
p13
aVDTOW
p14
aVSANT
p15
aVSAPP
p16
aVSAPL
p17
aVSANC
p18
aVSKID
p19
aVSBAR
p20
aVSBIK
p21
aVSBIZ
p22
aVSCOL
p23
aVSEDU
p24
aVSELE
p25
aVSFNB
p26
aVSFUR
p27
aVSGAR
p28
aVSGFT
p29
aVSHNB
p30
aVSHNG
p31
aVSIND
p32
aVSJWL
p33
aVSLIT
p34
aVSMNM
p35
aVSMUS
p36
aVSRES
p37
aVSSNF
p38
aVSTIX
p39
aVSTOO
p40
aVSTOY
p41
aVSTVL
p42
aVSWNT
p43
aVSOTH
p44
aVJACC
p45
aVJADM
p46
aVJAER
p47
aVJANL
p48
aVJANA
p49
aVJARC
p50
aVJART
p51
aVJAUT
p52
aVJBEA
p53
aVJBIZ
p54
aVJWEB
p55
aVJCST
p56
aVJCON
p57
aVJCUS
p58
aVJDES
p59
aVJEDU
p60
aVJENE
p61
aVJENG
p62
aVJENT
p63
aVJEVE
p64
aVJFIN
p65
aVJFNB
p66
aVJGIG
p67
aVJGOV
p68
aVJHEA
p69
aVJHOS
p70
aVJHUM
p71
aVJMNT
p72
aVJINS
p73
aVJINT
p74
aVJLAW
p75
aVJLEG
p76
aVJMAN
p77
aVJMFT
p78
aVJMAR
p79
aVJNON
p80
aVJOPS
p81
aVJPHA
p82
aVJPRO
p83
aVJPUR
p84
aVJQUA
p85
aVJREA
p86
aVJREC
p87
aVJRES
p88
aVJRNW
p89
aVJSAL
p90
aVJSCI
p91
aVJSEC
p92
aVJSKL
p93
aVJTEL
p94
aVJTRA
p95
aVJVOL
p96
aVJWNP
p97
aVJOTH
p98
aVMESC
p99
aVMFET
p100
aVMJOB
p101
aVMMSG
p102
aVMPNW
p103
aVMSTR
p104
aVMOTH
p105
aVPMSM
p106
aVPMSW
p107
aVPWSM
p108
aVPWSW
p109
aVPOTH
p110
aVRCRE
p111
aVRHFR
p112
aVRHFS
p113
aVRSUB
p114
aVRSWP
p115
aVRLOT
p116
aVRPNS
p117
aVRSHR
p118
aVRVAC
p119
aVRWNT
p120
aVROTH
p121
aVSVCC
p122
aVSVCE
p123
aVSVCF
p124
aVSVCM
p125
aVSVCH
p126
aVSVCP
p127
aVSVCO
p128
aVZOTH
p129
aVVAUT
p130
aVVMOT
p131
aVVMPT
p132
aVVPAR
p133
aVVOTH
p134
a.